target datalayout = "e-m:e-p270:32:32-p271:32:32-p272:64:64-i64:64-i128:128-f80:128-n8:16:32:64-S128"
target triple = "x86_64-pc-linux-gnu"

%struct.handle_dev_args = type { i32, i32, ptr }
%struct.stepd_step_rec_t = type { ptr, ptr, i32, %union.pthread_cond_t, %union.pthread_mutex_t, %struct.slurm_step_id_msg, i32, i32, i32, i32, i32, i32, ptr, ptr, i32, i32, ptr, i32, i32, i32, i32, i32, ptr, ptr, ptr, ptr, i32, i32, i64, i64, i16, i32, ptr, ptr, ptr, i32, ptr, i32, ptr, i32, ptr, i16, i32, i32, i32, ptr, i32, ptr, ptr, ptr, ptr, i32, i32, ptr, ptr, i8, i8, i8, i64, i32, ptr, ptr, ptr, ptr, ptr, ptr, ptr, ptr, ptr, ptr, i32, i32, ptr, i8, %union.pthread_cond_t, %union.pthread_mutex_t, i64, ptr, i32, i32, i32, ptr, i64, ptr, ptr, i8, ptr, i16, ptr, ptr, ptr, ptr, ptr, ptr, i64, ptr, i64, ptr, i16, i8, i16, i32, ptr, i16, ptr, ptr, i16, ptr, ptr, ptr, i8 }
%struct.slurm_step_id_msg = type { i64, i32, i32, i32 }
%union.pthread_cond_t = type { %struct.__pthread_cond_s }
%struct.__pthread_cond_s = type { %union.__atomic_wide_counter, %union.__atomic_wide_counter, [2 x i32], [2 x i32], i32, i32, [2 x i32] }
%union.__atomic_wide_counter = type { i64 }
%union.pthread_mutex_t = type { %struct.__pthread_mutex_s }
%struct.__pthread_mutex_s = type { i32, i32, i32, i32, i32, i16, i16, %struct.__pthread_internal_list }
%struct.__pthread_internal_list = type { ptr, ptr }

@is_first_task = internal global i8 1, align 1

; Function Attrs: nounwind uwtable
define dso_local i32 @task_cgroup_devices_create(ptr noundef %0) #0 {
  %2 = alloca i32, align 4
  %3 = alloca ptr, align 8
  %4 = alloca i32, align 4
  %5 = alloca i32, align 4
  %6 = alloca ptr, align 8
  %7 = alloca ptr, align 8
  %8 = alloca ptr, align 8
  %9 = alloca %struct.handle_dev_args, align 8
  %10 = alloca i32, align 4
  %11 = alloca i32, align 4
  %12 = alloca i32, align 4
  store ptr %0, ptr %3, align 8
  call void @llvm.lifetime.start.p0(i64 4, ptr %4) #5
  store i32 0, ptr %4, align 4
  call void @llvm.lifetime.start.p0(i64 4, ptr %5) #5
  call void @llvm.lifetime.start.p0(i64 8, ptr %6) #5
  %13 = load ptr, ptr %3, align 8
  %14 = getelementptr inbounds nuw %struct.stepd_step_rec_t, ptr %13, i32 0, i32 90
  %15 = load ptr, ptr %14, align 8
  store ptr %15, ptr %6, align 8
  call void @llvm.lifetime.start.p0(i64 8, ptr %7) #5
  %16 = load ptr, ptr %3, align 8
  %17 = getelementptr inbounds nuw %struct.stepd_step_rec_t, ptr %16, i32 0, i32 91
  %18 = load ptr, ptr %17, align 8
  store ptr %18, ptr %7, align 8
  call void @llvm.lifetime.start.p0(i64 8, ptr %8) #5
  store ptr null, ptr %8, align 8
  call void @llvm.lifetime.start.p0(i64 16, ptr %9) #5
  %19 = load i8, ptr @is_first_task, align 1, !range !8, !noundef !9
  %20 = trunc i8 %19 to i1
  br i1 %20, label %21, label %27

21:                                               ; preds = %1
  %22 = load ptr, ptr %3, align 8
  %23 = call i32 @cgroup_g_step_create(i32 noundef 3, ptr noundef %22)
  %24 = icmp ne i32 %23, 0
  br i1 %24, label %25, label %26

25:                                               ; preds = %21
  store i32 -1, ptr %2, align 4
  store i32 1, ptr %10, align 4
  br label %114

26:                                               ; preds = %21
  store i8 0, ptr @is_first_task, align 1
  br label %27

27:                                               ; preds = %26, %1
  %28 = load ptr, ptr %6, align 8
  %29 = load ptr, ptr %3, align 8
  %30 = call ptr @gres_g_get_devices(ptr noundef %28, i1 noundef zeroext true, i16 noundef zeroext 0, ptr noundef null, i32 noundef 0, ptr noundef %29)
  store ptr %30, ptr %8, align 8
  %31 = load ptr, ptr %8, align 8
  %32 = icmp ne ptr %31, null
  br i1 %32, label %33, label %55

33:                                               ; preds = %27
  call void @llvm.lifetime.start.p0(i64 4, ptr %11) #5
  %34 = getelementptr inbounds nuw %struct.handle_dev_args, ptr %9, i32 0, i32 0
  store i32 3, ptr %34, align 8
  %35 = load ptr, ptr %3, align 8
  %36 = getelementptr inbounds nuw %struct.handle_dev_args, ptr %9, i32 0, i32 2
  store ptr %35, ptr %36, align 8
  %37 = load ptr, ptr %8, align 8
  %38 = call i32 @list_for_each(ptr noundef %37, ptr noundef @_handle_device_access, ptr noundef %9)
  store i32 %38, ptr %11, align 4
  br label %39

39:                                               ; preds = %33
  %40 = load ptr, ptr %8, align 8
  %41 = icmp ne ptr %40, null
  br i1 %41, label %42, label %44

42:                                               ; preds = %39
  %43 = load ptr, ptr %8, align 8
  call void @list_destroy(ptr noundef %43)
  br label %44

44:                                               ; preds = %42, %39
  store ptr null, ptr %8, align 8
  br label %45

45:                                               ; preds = %44
  br label %46

46:                                               ; preds = %45
  %47 = load i32, ptr %11, align 4
  %48 = icmp slt i32 %47, 0
  br i1 %48, label %49, label %50

49:                                               ; preds = %46
  store i32 -1, ptr %4, align 4
  store i32 4, ptr %10, align 4
  br label %52

50:                                               ; preds = %46
  %51 = call i32 @cgroup_g_constrain_apply(i32 noundef 3, i32 noundef 3, i32 noundef -2)
  store i32 0, ptr %10, align 4
  br label %52

52:                                               ; preds = %49, %50
  call void @llvm.lifetime.end.p0(i64 4, ptr %11) #5
  %53 = load i32, ptr %10, align 4
  switch i32 %53, label %114 [
    i32 0, label %54
    i32 4, label %112
  ]

54:                                               ; preds = %52
  br label %55

55:                                               ; preds = %54, %27
  %56 = load ptr, ptr %3, align 8
  %57 = getelementptr inbounds nuw %struct.stepd_step_rec_t, ptr %56, i32 0, i32 5
  %58 = getelementptr inbounds nuw %struct.slurm_step_id_msg, ptr %57, i32 0, i32 3
  %59 = load i32, ptr %58, align 8
  %60 = icmp ne i32 %59, -5
  br i1 %60, label %61, label %109

61:                                               ; preds = %55
  %62 = load ptr, ptr %3, align 8
  %63 = getelementptr inbounds nuw %struct.stepd_step_rec_t, ptr %62, i32 0, i32 5
  %64 = getelementptr inbounds nuw %struct.slurm_step_id_msg, ptr %63, i32 0, i32 3
  %65 = load i32, ptr %64, align 8
  %66 = icmp ne i32 %65, -4
  br i1 %66, label %67, label %109

67:                                               ; preds = %61
  %68 = load ptr, ptr %3, align 8
  %69 = getelementptr inbounds nuw %struct.stepd_step_rec_t, ptr %68, i32 0, i32 5
  %70 = getelementptr inbounds nuw %struct.slurm_step_id_msg, ptr %69, i32 0, i32 3
  %71 = load i32, ptr %70, align 8
  %72 = icmp ne i32 %71, -6
  br i1 %72, label %73, label %109

73:                                               ; preds = %67
  %74 = load ptr, ptr %3, align 8
  %75 = getelementptr inbounds nuw %struct.stepd_step_rec_t, ptr %74, i32 0, i32 80
  %76 = load i32, ptr %75, align 8
  %77 = zext i32 %76 to i64
  %78 = and i64 %77, 32
  %79 = icmp ne i64 %78, 0
  br i1 %79, label %109, label %80

80:                                               ; preds = %73
  %81 = load ptr, ptr %7, align 8
  %82 = load ptr, ptr %3, align 8
  %83 = call ptr @gres_g_get_devices(ptr noundef %81, i1 noundef zeroext false, i16 noundef zeroext 0, ptr noundef null, i32 noundef 0, ptr noundef %82)
  store ptr %83, ptr %8, align 8
  %84 = load ptr, ptr %8, align 8
  %85 = icmp ne ptr %84, null
  br i1 %85, label %86, label %108

86:                                               ; preds = %80
  call void @llvm.lifetime.start.p0(i64 4, ptr %12) #5
  %87 = getelementptr inbounds nuw %struct.handle_dev_args, ptr %9, i32 0, i32 0
  store i32 4, ptr %87, align 8
  %88 = load ptr, ptr %3, align 8
  %89 = getelementptr inbounds nuw %struct.handle_dev_args, ptr %9, i32 0, i32 2
  store ptr %88, ptr %89, align 8
  %90 = load ptr, ptr %8, align 8
  %91 = call i32 @list_for_each(ptr noundef %90, ptr noundef @_handle_device_access, ptr noundef %9)
  store i32 %91, ptr %12, align 4
  br label %92

92:                                               ; preds = %86
  %93 = load ptr, ptr %8, align 8
  %94 = icmp ne ptr %93, null
  br i1 %94, label %95, label %97

95:                                               ; preds = %92
  %96 = load ptr, ptr %8, align 8
  call void @list_destroy(ptr noundef %96)
  br label %97

97:                                               ; preds = %95, %92
  store ptr null, ptr %8, align 8
  br label %98

98:                                               ; preds = %97
  br label %99

99:                                               ; preds = %98
  %100 = load i32, ptr %12, align 4
  %101 = icmp slt i32 %100, 0
  br i1 %101, label %102, label %103

102:                                              ; preds = %99
  store i32 -1, ptr %4, align 4
  store i32 4, ptr %10, align 4
  br label %105

103:                                              ; preds = %99
  %104 = call i32 @cgroup_g_constrain_apply(i32 noundef 3, i32 noundef 4, i32 noundef -2)
  store i32 0, ptr %10, align 4
  br label %105

105:                                              ; preds = %102, %103
  call void @llvm.lifetime.end.p0(i64 4, ptr %12) #5
  %106 = load i32, ptr %10, align 4
  switch i32 %106, label %114 [
    i32 0, label %107
    i32 4, label %112
  ]

107:                                              ; preds = %105
  br label %108

108:                                              ; preds = %107, %80
  br label %109

109:                                              ; preds = %108, %73, %67, %61, %55
  %110 = call i32 @getpid() #5
  store i32 %110, ptr %5, align 4
  %111 = call i32 @cgroup_g_step_addto(i32 noundef 3, ptr noundef %5, i32 noundef 1)
  store i32 %111, ptr %4, align 4
  br label %112

112:                                              ; preds = %109, %105, %52
  %113 = load i32, ptr %4, align 4
  store i32 %113, ptr %2, align 4
  store i32 1, ptr %10, align 4
  br label %114

114:                                              ; preds = %112, %105, %52, %25
  call void @llvm.lifetime.end.p0(i64 16, ptr %9) #5
  call void @llvm.lifetime.end.p0(i64 8, ptr %8) #5
  call void @llvm.lifetime.end.p0(i64 8, ptr %7) #5
  call void @llvm.lifetime.end.p0(i64 8, ptr %6) #5
  call void @llvm.lifetime.end.p0(i64 4, ptr %5) #5
  call void @llvm.lifetime.end.p0(i64 4, ptr %4) #5
  %115 = load i32, ptr %2, align 4
  ret i32 %115
}