; Function Attrs: nounwind uwtable
define dso_local i32 @task_cgroup_devices_create(ptr noundef %0) local_unnamed_addr #0 {
  %2 = alloca i32, align 4
  %3 = alloca %struct.handle_dev_args, align 8
  call void @llvm.lifetime.start.p0(i64 4, ptr nonnull %2) #5
  %4 = getelementptr inbounds nuw i8, ptr %0, i64 760
  %5 = load ptr, ptr %4, align 8
  %6 = getelementptr inbounds nuw i8, ptr %0, i64 768
  %7 = load ptr, ptr %6, align 8
  call void @llvm.lifetime.start.p0(i64 16, ptr nonnull %3) #5
  %.b = load i1, ptr @is_first_task, align 1
  br i1 %.b, label %11, label %8

8:                                                ; preds = %1
  %9 = tail call i32 @cgroup_g_step_create(i32 noundef 3, ptr noundef nonnull %0) #5
  %.not = icmp eq i32 %9, 0
  br i1 %.not, label %10, label %35

10:                                               ; preds = %8
  store i1 true, ptr @is_first_task, align 1
  br label %11

11:                                               ; preds = %10, %1
  %12 = tail call ptr @gres_g_get_devices(ptr noundef %5, i1 noundef zeroext true, i16 noundef zeroext 0, ptr noundef null, i32 noundef 0, ptr noundef nonnull %0) #5
  %.not32 = icmp eq ptr %12, null
  br i1 %.not32, label %18, label %13

13:                                               ; preds = %11
  store i32 3, ptr %3, align 8
  %14 = getelementptr inbounds nuw i8, ptr %3, i64 8
  store ptr %0, ptr %14, align 8
  %15 = call i32 @list_for_each(ptr noundef nonnull %12, ptr noundef nonnull @_handle_device_access, ptr noundef nonnull %3) #5
  call void @list_destroy(ptr noundef nonnull %12) #5
  %16 = icmp slt i32 %15, 0
  br i1 %16, label %35, label %.thread

.thread:                                          ; preds = %13
  %17 = call i32 @cgroup_g_constrain_apply(i32 noundef 3, i32 noundef 3, i32 noundef -2) #5
  br label %18

18:                                               ; preds = %.thread, %11
  %19 = getelementptr inbounds nuw i8, ptr %0, i64 128
  %20 = load i32, ptr %19, align 8
  %.off = add i32 %20, 6
  %switch42 = icmp ult i32 %.off, 3
  br i1 %switch42, label %32, label %21

21:                                               ; preds = %18
  %22 = getelementptr inbounds nuw i8, ptr %0, i64 680
  %23 = load i32, ptr %22, align 8
  %24 = and i32 %23, 32
  %.not36 = icmp eq i32 %24, 0
  br i1 %.not36, label %25, label %32

25:                                               ; preds = %21
  %26 = call ptr @gres_g_get_devices(ptr noundef %7, i1 noundef zeroext false, i16 noundef zeroext 0, ptr noundef null, i32 noundef 0, ptr noundef nonnull %0) #5
  %.not37 = icmp eq ptr %26, null
  br i1 %.not37, label %32, label %27

27:                                               ; preds = %25
  store i32 4, ptr %3, align 8
  %28 = getelementptr inbounds nuw i8, ptr %3, i64 8
  store ptr %0, ptr %28, align 8
  %29 = call i32 @list_for_each(ptr noundef nonnull %26, ptr noundef nonnull @_handle_device_access, ptr noundef nonnull %3) #5
  call void @list_destroy(ptr noundef nonnull %26) #5
  %30 = icmp slt i32 %29, 0
  br i1 %30, label %35, label %.thread46

.thread46:                                        ; preds = %27
  %31 = call i32 @cgroup_g_constrain_apply(i32 noundef 3, i32 noundef 4, i32 noundef -2) #5
  br label %32

32:                                               ; preds = %.thread46, %18, %25, %21
  %33 = call i32 @getpid() #5
  store i32 %33, ptr %2, align 4
  %34 = call i32 @cgroup_g_step_addto(i32 noundef 3, ptr noundef nonnull %2, i32 noundef 1) #5
  br label %35

35:                                               ; preds = %27, %13, %32, %8
  %.0 = phi i32 [ -1, %8 ], [ %34, %32 ], [ -1, %13 ], [ -1, %27 ]
  call void @llvm.lifetime.end.p0(i64 16, ptr nonnull %3) #5
  call void @llvm.lifetime.end.p0(i64 4, ptr nonnull %2) #5
  ret i32 %.0
}